target datalayout = "e-m:e-p270:32:32-p271:32:32-p272:64:64-i64:64-i128:128-f80:128-n8:16:32:64-S128"
target triple = "x86_64-pc-linux-gnu"

; Function Attrs: nounwind uwtable
define ptr @catmull_rom_set(i32 noundef %0, ptr noundef %1, ptr noundef %2) #0 {
  %4 = alloca ptr, align 8
  %5 = alloca i32, align 4
  %6 = alloca ptr, align 8
  %7 = alloca ptr, align 8
  %8 = alloca i32, align 4
  %9 = alloca i32, align 4
  %10 = alloca ptr, align 8
  %11 = alloca i32, align 4
  store i32 %0, ptr %5, align 4, !tbaa !6
  store ptr %1, ptr %6, align 8, !tbaa !10
  store ptr %2, ptr %7, align 8, !tbaa !10
  %12 = load i32, ptr %5, align 4, !tbaa !6
  %13 = icmp sle i32 %12, 1
  br i1 %13, label %14, label %15

14:                                               ; preds = %3
  store ptr null, ptr %4, align 8
  br label %138

15:                                               ; preds = %3
  call void @llvm.lifetime.start.p0(i64 4, ptr %8) #6
  store i32 0, ptr %8, align 4, !tbaa !6
  br label %16

16:                                               ; preds = %37, %15
  %17 = load i32, ptr %8, align 4, !tbaa !6
  %18 = load i32, ptr %5, align 4, !tbaa !6
  %19 = sub nsw i32 %18, 1
  %20 = icmp slt i32 %17, %19
  br i1 %20, label %22, label %21

21:                                               ; preds = %16
  store i32 2, ptr %9, align 4
  br label %40

22:                                               ; preds = %16
  %23 = load ptr, ptr %6, align 8, !tbaa !10
  %24 = load i32, ptr %8, align 4, !tbaa !6
  %25 = add nsw i32 %24, 1
  %26 = sext i32 %25 to i64
  %27 = getelementptr inbounds float, ptr %23, i64 %26
  %28 = load float, ptr %27, align 4, !tbaa !13
  %29 = load ptr, ptr %6, align 8, !tbaa !10
  %30 = load i32, ptr %8, align 4, !tbaa !6
  %31 = sext i32 %30 to i64
  %32 = getelementptr inbounds float, ptr %29, i64 %31
  %33 = load float, ptr %32, align 4, !tbaa !13
  %34 = fcmp reassoc nsz arcp contract afn ole float %28, %33
  br i1 %34, label %35, label %36

35:                                               ; preds = %22
  store ptr null, ptr %4, align 8
  store i32 1, ptr %9, align 4
  br label %40

36:                                               ; preds = %22
  br label %37

37:                                               ; preds = %36
  %38 = load i32, ptr %8, align 4, !tbaa !6
  %39 = add nsw i32 %38, 1
  store i32 %39, ptr %8, align 4, !tbaa !6
  br label %16

40:                                               ; preds = %35, %21
  call void @llvm.lifetime.end.p0(i64 4, ptr %8) #6
  %41 = load i32, ptr %9, align 4
  switch i32 %41, label %140 [
    i32 2, label %42
    i32 1, label %138
  ]

42:                                               ; preds = %40
  call void @llvm.lifetime.start.p0(i64 8, ptr %10) #6
  %43 = load i32, ptr %5, align 4, !tbaa !6
  %44 = sext i32 %43 to i64
  %45 = call noalias ptr @calloc(i64 noundef %44, i64 noundef 4) #7
  store ptr %45, ptr %10, align 8, !tbaa !10
  %46 = load ptr, ptr %7, align 8, !tbaa !10
  %47 = getelementptr inbounds float, ptr %46, i64 1
  %48 = load float, ptr %47, align 4, !tbaa !13
  %49 = load ptr, ptr %7, align 8, !tbaa !10
  %50 = getelementptr inbounds float, ptr %49, i64 0
  %51 = load float, ptr %50, align 4, !tbaa !13
  %52 = fsub reassoc nsz arcp contract afn float %48, %51
  %53 = load ptr, ptr %6, align 8, !tbaa !10
  %54 = getelementptr inbounds float, ptr %53, i64 1
  %55 = load float, ptr %54, align 4, !tbaa !13
  %56 = load ptr, ptr %6, align 8, !tbaa !10
  %57 = getelementptr inbounds float, ptr %56, i64 0
  %58 = load float, ptr %57, align 4, !tbaa !13
  %59 = fsub reassoc nsz arcp contract afn float %55, %58
  %60 = fdiv reassoc nsz arcp contract afn float %52, %59
  %61 = load ptr, ptr %10, align 8, !tbaa !10
  %62 = getelementptr inbounds float, ptr %61, i64 0
  store float %60, ptr %62, align 4, !tbaa !13
  call void @llvm.lifetime.start.p0(i64 4, ptr %11) #6
  store i32 1, ptr %11, align 4, !tbaa !6
  br label %63

63:                                               ; preds = %101, %42
  %64 = load i32, ptr %11, align 4, !tbaa !6
  %65 = load i32, ptr %5, align 4, !tbaa !6
  %66 = sub nsw i32 %65, 1
  %67 = icmp slt i32 %64, %66
  br i1 %67, label %69, label %68

68:                                               ; preds = %63
  store i32 5, ptr %9, align 4
  call void @llvm.lifetime.end.p0(i64 4, ptr %11) #6
  br label %104

69:                                               ; preds = %63
  %70 = load ptr, ptr %7, align 8, !tbaa !10
  %71 = load i32, ptr %11, align 4, !tbaa !6
  %72 = add nsw i32 %71, 1
  %73 = sext i32 %72 to i64
  %74 = getelementptr inbounds float, ptr %70, i64 %73
  %75 = load float, ptr %74, align 4, !tbaa !13
  %76 = load ptr, ptr %7, align 8, !tbaa !10
  %77 = load i32, ptr %11, align 4, !tbaa !6
  %78 = sub nsw i32 %77, 1
  %79 = sext i32 %78 to i64
  %80 = getelementptr inbounds float, ptr %76, i64 %79
  %81 = load float, ptr %80, align 4, !tbaa !13
  %82 = fsub reassoc nsz arcp contract afn float %75, %81
  %83 = load ptr, ptr %6, align 8, !tbaa !10
  %84 = load i32, ptr %11, align 4, !tbaa !6
  %85 = add nsw i32 %84, 1
  %86 = sext i32 %85 to i64
  %87 = getelementptr inbounds float, ptr %83, i64 %86
  %88 = load float, ptr %87, align 4, !tbaa !13
  %89 = load ptr, ptr %6, align 8, !tbaa !10
  %90 = load i32, ptr %11, align 4, !tbaa !6
  %91 = sub nsw i32 %90, 1
  %92 = sext i32 %91 to i64
  %93 = getelementptr inbounds float, ptr %89, i64 %92
  %94 = load float, ptr %93, align 4, !tbaa !13
  %95 = fsub reassoc nsz arcp contract afn float %88, %94
  %96 = fdiv reassoc nsz arcp contract afn float %82, %95
  %97 = load ptr, ptr %10, align 8, !tbaa !10
  %98 = load i32, ptr %11, align 4, !tbaa !6
  %99 = sext i32 %98 to i64
  %100 = getelementptr inbounds float, ptr %97, i64 %99
  store float %96, ptr %100, align 4, !tbaa !13
  br label %101

101:                                              ; preds = %69
  %102 = load i32, ptr %11, align 4, !tbaa !6
  %103 = add nsw i32 %102, 1
  store i32 %103, ptr %11, align 4, !tbaa !6
  br label %63

104:                                              ; preds = %68
  %105 = load ptr, ptr %7, align 8, !tbaa !10
  %106 = load i32, ptr %5, align 4, !tbaa !6
  %107 = sub nsw i32 %106, 1
  %108 = sext i32 %107 to i64
  %109 = getelementptr inbounds float, ptr %105, i64 %108
  %110 = load float, ptr %109, align 4, !tbaa !13
  %111 = load ptr, ptr %7, align 8, !tbaa !10
  %112 = load i32, ptr %5, align 4, !tbaa !6
  %113 = sub nsw i32 %112, 2
  %114 = sext i32 %113 to i64
  %115 = getelementptr inbounds float, ptr %111, i64 %114
  %116 = load float, ptr %115, align 4, !tbaa !13
  %117 = fsub reassoc nsz arcp contract afn float %110, %116
  %118 = load ptr, ptr %6, align 8, !tbaa !10
  %119 = load i32, ptr %5, align 4, !tbaa !6
  %120 = sub nsw i32 %119, 1
  %121 = sext i32 %120 to i64
  %122 = getelementptr inbounds float, ptr %118, i64 %121
  %123 = load float, ptr %122, align 4, !tbaa !13
  %124 = load ptr, ptr %6, align 8, !tbaa !10
  %125 = load i32, ptr %5, align 4, !tbaa !6
  %126 = sub nsw i32 %125, 2
  %127 = sext i32 %126 to i64
  %128 = getelementptr inbounds float, ptr %124, i64 %127
  %129 = load float, ptr %128, align 4, !tbaa !13
  %130 = fsub reassoc nsz arcp contract afn float %123, %129
  %131 = fdiv reassoc nsz arcp contract afn float %117, %130
  %132 = load ptr, ptr %10, align 8, !tbaa !10
  %133 = load i32, ptr %5, align 4, !tbaa !6
  %134 = sub nsw i32 %133, 1
  %135 = sext i32 %134 to i64
  %136 = getelementptr inbounds float, ptr %132, i64 %135
  store float %131, ptr %136, align 4, !tbaa !13
  %137 = load ptr, ptr %10, align 8, !tbaa !10
  store ptr %137, ptr %4, align 8
  store i32 1, ptr %9, align 4
  call void @llvm.lifetime.end.p0(i64 8, ptr %10) #6
  br label %138

138:                                              ; preds = %104, %40, %14
  %139 = load ptr, ptr %4, align 8
  ret ptr %139

140:                                              ; preds = %40
  unreachable
}