; Function Attrs: nofree nounwind memory(write, argmem: read, inaccessiblemem: readwrite) uwtable
define noalias noundef ptr @catmull_rom_set(i32 noundef %0, ptr noundef readonly captures(none) %1, ptr noundef readonly captures(none) %2) #2 {
  %4 = icmp slt i32 %0, 2
  br i1 %4, label %.loopexit, label %.preheader

.preheader:                                       ; preds = %3
  %5 = add nsw i32 %0, -1
  %wide.trip.count = zext nneg i32 %5 to i64
  br label %6

6:                                                ; preds = %.preheader, %7
  %indvars.iv = phi i64 [ 0, %.preheader ], [ %indvars.iv.next, %7 ]
  %exitcond.not = icmp eq i64 %indvars.iv, %wide.trip.count
  br i1 %exitcond.not, label %13, label %7

7:                                                ; preds = %6
  %indvars.iv.next = add nuw nsw i64 %indvars.iv, 1
  %8 = getelementptr inbounds nuw float, ptr %1, i64 %indvars.iv.next
  %9 = load float, ptr %8, align 4, !tbaa !6
  %10 = getelementptr inbounds nuw float, ptr %1, i64 %indvars.iv
  %11 = load float, ptr %10, align 4, !tbaa !6
  %12 = fcmp reassoc nsz arcp contract afn ugt float %9, %11
  br i1 %12, label %6, label %.loopexit

13:                                               ; preds = %6
  %14 = zext nneg i32 %0 to i64
  %15 = tail call noalias ptr @calloc(i64 noundef %14, i64 noundef 4) #12
  %16 = getelementptr inbounds nuw i8, ptr %2, i64 4
  %17 = load float, ptr %16, align 4, !tbaa !6
  %18 = load float, ptr %2, align 4, !tbaa !6
  %19 = fsub reassoc nsz arcp contract afn float %17, %18
  %20 = getelementptr inbounds nuw i8, ptr %1, i64 4
  %21 = load float, ptr %20, align 4, !tbaa !6
  %22 = load float, ptr %1, align 4, !tbaa !6
  %23 = fsub reassoc nsz arcp contract afn float %21, %22
  %24 = fdiv reassoc nsz arcp contract afn float %19, %23
  store float %24, ptr %15, align 4, !tbaa !6
  %.not = icmp eq i32 %0, 2
  br i1 %.not, label %._crit_edge, label %.lr.ph

._crit_edge:                                      ; preds = %.lr.ph, %13
  %25 = getelementptr inbounds nuw float, ptr %2, i64 %wide.trip.count
  %26 = load float, ptr %25, align 4, !tbaa !6
  %27 = add nsw i32 %0, -2
  %28 = zext nneg i32 %27 to i64
  %29 = getelementptr inbounds nuw float, ptr %2, i64 %28
  %30 = load float, ptr %29, align 4, !tbaa !6
  %31 = fsub reassoc nsz arcp contract afn float %26, %30
  %32 = getelementptr inbounds nuw float, ptr %1, i64 %wide.trip.count
  %33 = load float, ptr %32, align 4, !tbaa !6
  %34 = getelementptr inbounds nuw float, ptr %1, i64 %28
  %35 = load float, ptr %34, align 4, !tbaa !6
  %36 = fsub reassoc nsz arcp contract afn float %33, %35
  %37 = fdiv reassoc nsz arcp contract afn float %31, %36
  %38 = getelementptr inbounds nuw float, ptr %15, i64 %wide.trip.count
  store float %37, ptr %38, align 4, !tbaa !6
  br label %.loopexit

.lr.ph:                                           ; preds = %13, %.lr.ph
  %indvars.iv50 = phi i64 [ %indvars.iv.next51, %.lr.ph ], [ 1, %13 ]
  %indvars.iv.next51 = add nuw nsw i64 %indvars.iv50, 1
  %39 = getelementptr inbounds nuw float, ptr %2, i64 %indvars.iv.next51
  %40 = load float, ptr %39, align 4, !tbaa !6
  %41 = add nsw i64 %indvars.iv50, -1
  %42 = getelementptr inbounds float, ptr %2, i64 %41
  %43 = load float, ptr %42, align 4, !tbaa !6
  %44 = fsub reassoc nsz arcp contract afn float %40, %43
  %45 = getelementptr inbounds nuw float, ptr %1, i64 %indvars.iv.next51
  %46 = load float, ptr %45, align 4, !tbaa !6
  %47 = getelementptr inbounds float, ptr %1, i64 %41
  %48 = load float, ptr %47, align 4, !tbaa !6
  %49 = fsub reassoc nsz arcp contract afn float %46, %48
  %50 = fdiv reassoc nsz arcp contract afn float %44, %49
  %51 = getelementptr inbounds nuw float, ptr %15, i64 %indvars.iv50
  store float %50, ptr %51, align 4, !tbaa !6
  %exitcond54.not = icmp eq i64 %indvars.iv.next51, %wide.trip.count
  br i1 %exitcond54.not, label %._crit_edge, label %.lr.ph

.loopexit:                                        ; preds = %7, %3, %._crit_edge
  %.039 = phi ptr [ %15, %._crit_edge ], [ null, %3 ], [ null, %7 ]
  ret ptr %.039
}